; Function Attrs: inlinehint nofree nounwind uwtable
define internal fastcc range(i32 -32, 1) i32 @pmix_bfrops_base_tma_copy_ndstats(ptr noundef writeonly captures(none) %0, ptr noundef readonly captures(none) %1) unnamed_addr #12 {
  %calloc.i = tail call dereferenceable_or_null(104) ptr @calloc(i64 1, i64 104)
  %3 = icmp eq ptr %calloc.i, null
  br i1 %3, label %5, label %4, !prof !77

4:                                                ; preds = %2
  store ptr %calloc.i, ptr %0, align 8, !tbaa !148
  tail call fastcc void @pmix_bfrops_base_tma_populate_ndstats(ptr noundef %calloc.i, ptr noundef %1)
  br label %5

5:                                                ; preds = %2, %4
  %.0 = phi i32 [ 0, %4 ], [ -32, %2 ]
  ret i32 %.0
}